	.section	__TEXT,__text,regular,pure_instructions
	.build_version macos, 12, 0	sdk_version 13, 1
	.globl	_factorial                      ## -- Begin function factorial
	.p2align	4, 0x90
_factorial:                             ## @factorial
	.cfi_startproc
## %bb.0:
	pushq	%rbp
	.cfi_def_cfa_offset 16
	.cfi_offset %rbp, -16
	movq	%rsp, %rbp
	.cfi_def_cfa_register %rbp
	movl	%edi, -4(%rbp)
	movq	$1, -16(%rbp)
LBB0_1:                                 ## =>This Inner Loop Header: Depth=1
	cmpl	$0, -4(%rbp)
	jle	LBB0_3
## %bb.2:                               ##   in Loop: Header=BB0_1 Depth=1
	movslq	-4(%rbp), %rax
	imulq	-16(%rbp), %rax
	movq	%rax, -16(%rbp)
	movl	-4(%rbp), %eax
	addl	$-1, %eax
	movl	%eax, -4(%rbp)
	jmp	LBB0_1
LBB0_3:
	movq	-16(%rbp), %rax
	popq	%rbp
	retq
	.cfi_endproc
                                        ## -- End function
	.globl	_main                           ## -- Begin function main
	.p2align	4, 0x90
_main:                                  ## @main
	.cfi_startproc
## %bb.0:
	pushq	%rbp
	.cfi_def_cfa_offset 16
	.cfi_offset %rbp, -16
	movq	%rsp, %rbp
	.cfi_def_cfa_register %rbp
	subq	$16, %rsp
	movl	$0, -4(%rbp)
	leaq	L_.str(%rip), %rdi
	leaq	-8(%rbp), %rsi
	movb	$0, %al
	callq	_scanf
	movl	-8(%rbp), %edi
	callq	_factorial
	movq	%rax, %rsi
	leaq	L_.str.1(%rip), %rdi
	movb	$0, %al
	callq	_printf
	xorl	%eax, %eax
	addq	$16, %rsp
	popq	%rbp
	retq
	.cfi_endproc
                                        ## -- End function
	.section	__TEXT,__cstring,cstring_literals
L_.str:                                 ## @.str
	.asciz	"%d"

L_.str.1:                               ## @.str.1
	.asciz	"\n%lld\n"

.subsections_via_symbols
